; Function Attrs: mustprogress nounwind uwtable
define void @_Z28_gmx_sel_yy_switch_to_bufferP15yy_buffer_statePv(ptr noundef %0, ptr nocapture noundef %1) local_unnamed_addr #1 {
  %3 = getelementptr inbounds i8, ptr %1, i64 40
  %4 = load ptr, ptr %3, align 8
  %.not.i = icmp eq ptr %4, null
  br i1 %.not.i, label %5, label %11

5:                                                ; preds = %2
  %6 = tail call noalias noundef dereferenceable_or_null(8) ptr @malloc(i64 noundef 8) #28
  store ptr %6, ptr %3, align 8
  %.not28.i = icmp eq ptr %6, null
  br i1 %.not28.i, label %7, label %8

7:                                                ; preds = %5
  tail call fastcc void @_ZL14yy_fatal_errorPKcPv(ptr noundef nonnull @.str.13) #29
  unreachable

8:                                                ; preds = %5
  store i64 0, ptr %6, align 8
  %9 = getelementptr inbounds i8, ptr %1, i64 32
  store i64 1, ptr %9, align 8
  %10 = getelementptr inbounds i8, ptr %1, i64 24
  store i64 0, ptr %10, align 8
  br label %.thread

11:                                               ; preds = %2
  %12 = getelementptr inbounds i8, ptr %1, i64 24
  %13 = load i64, ptr %12, align 8
  %14 = getelementptr inbounds i8, ptr %1, i64 32
  %15 = load i64, ptr %14, align 8
  %16 = add i64 %15, -1
  %.not29.i = icmp ult i64 %13, %16
  br i1 %.not29.i, label %.thread, label %17

17:                                               ; preds = %11
  %18 = add i64 %15, 8
  %19 = shl i64 %18, 3
  %20 = tail call noalias noundef ptr @realloc(ptr noundef nonnull %4, i64 noundef %19) #30
  store ptr %20, ptr %3, align 8
  %.not30.i = icmp eq ptr %20, null
  br i1 %.not30.i, label %21, label %22

21:                                               ; preds = %17
  tail call fastcc void @_ZL14yy_fatal_errorPKcPv(ptr noundef nonnull @.str.13) #29
  unreachable

22:                                               ; preds = %17
  %23 = load i64, ptr %14, align 8
  %24 = getelementptr inbounds ptr, ptr %20, i64 %23
  tail call void @llvm.memset.p0.i64(ptr noundef nonnull align 8 dereferenceable(64) %24, i8 0, i64 64, i1 false)
  store i64 %18, ptr %14, align 8
  br label %.thread

.thread:                                          ; preds = %22, %11, %8
  %25 = phi ptr [ %6, %8 ], [ %4, %11 ], [ %20, %22 ]
  %26 = getelementptr inbounds i8, ptr %1, i64 24
  %27 = load i64, ptr %26, align 8
  %28 = getelementptr inbounds ptr, ptr %25, i64 %27
  %29 = load ptr, ptr %28, align 8
  %30 = icmp eq ptr %29, %0
  br i1 %30, label %73, label %31

31:                                               ; preds = %.thread
  %32 = icmp eq ptr %29, null
  br i1 %32, label %.critedge, label %33

33:                                               ; preds = %31
  %34 = getelementptr inbounds i8, ptr %1, i64 48
  %35 = load i8, ptr %34, align 8
  %36 = getelementptr inbounds i8, ptr %1, i64 72
  %37 = load ptr, ptr %36, align 8
  store i8 %35, ptr %37, align 1
  %38 = load ptr, ptr %36, align 8
  %39 = load ptr, ptr %3, align 8
  %40 = load i64, ptr %26, align 8
  %41 = getelementptr inbounds ptr, ptr %39, i64 %40
  %42 = load ptr, ptr %41, align 8
  %43 = getelementptr inbounds i8, ptr %42, i64 16
  store ptr %38, ptr %43, align 8
  %44 = getelementptr inbounds i8, ptr %1, i64 56
  %45 = load i64, ptr %44, align 8
  %46 = load ptr, ptr %3, align 8
  %47 = load i64, ptr %26, align 8
  %48 = getelementptr inbounds ptr, ptr %46, i64 %47
  %49 = load ptr, ptr %48, align 8
  %50 = getelementptr inbounds i8, ptr %49, i64 32
  store i64 %45, ptr %50, align 8
  %.pre = load ptr, ptr %3, align 8
  br label %.critedge

.critedge:                                        ; preds = %33, %31
  %51 = phi ptr [ %.pre, %33 ], [ %25, %31 ]
  %52 = getelementptr inbounds i8, ptr %1, i64 24
  %53 = load i64, ptr %52, align 8
  %54 = getelementptr inbounds ptr, ptr %51, i64 %53
  store ptr %0, ptr %54, align 8
  %55 = load ptr, ptr %3, align 8
  %56 = load i64, ptr %52, align 8
  %57 = getelementptr inbounds ptr, ptr %55, i64 %56
  %58 = load ptr, ptr %57, align 8
  %59 = getelementptr inbounds i8, ptr %58, i64 32
  %60 = load i64, ptr %59, align 8
  %61 = getelementptr inbounds i8, ptr %1, i64 56
  store i64 %60, ptr %61, align 8
  %62 = load ptr, ptr %57, align 8
  %63 = getelementptr inbounds i8, ptr %62, i64 16
  %64 = load ptr, ptr %63, align 8
  %65 = getelementptr inbounds i8, ptr %1, i64 72
  store ptr %64, ptr %65, align 8
  %66 = getelementptr inbounds i8, ptr %1, i64 136
  store ptr %64, ptr %66, align 8
  %67 = load ptr, ptr %57, align 8
  %68 = load ptr, ptr %67, align 8
  %69 = getelementptr inbounds i8, ptr %1, i64 8
  store ptr %68, ptr %69, align 8
  %70 = load i8, ptr %64, align 1
  %71 = getelementptr inbounds i8, ptr %1, i64 48
  store i8 %70, ptr %71, align 8
  %72 = getelementptr inbounds i8, ptr %1, i64 88
  store i32 1, ptr %72, align 8
  br label %73

73:                                               ; preds = %.thread, %.critedge
  ret void
}